ARM GAS  C:\Users\Bgs\AppData\Local\Temp\ccOQqKeE.s 			page 1


   1              		.cpu cortex-m4
   2              		.arch armv7e-m
   3              		.fpu fpv4-sp-d16
   4              		.eabi_attribute 27, 1
   5              		.eabi_attribute 28, 1
   6              		.eabi_attribute 20, 1
   7              		.eabi_attribute 21, 1
   8              		.eabi_attribute 23, 3
   9              		.eabi_attribute 24, 1
  10              		.eabi_attribute 25, 1
  11              		.eabi_attribute 26, 1
  12              		.eabi_attribute 30, 1
  13              		.eabi_attribute 34, 1
  14              		.eabi_attribute 18, 4
  15              		.file	"adc.c"
  16              		.text
  17              	.Ltext0:
  18              		.cfi_sections	.debug_frame
  19              		.file 1 "Core/Src/adc.c"
  20              		.section	.text.MX_ADC1_Init,"ax",%progbits
  21              		.align	1
  22              		.global	MX_ADC1_Init
  23              		.syntax unified
  24              		.thumb
  25              		.thumb_func
  27              	MX_ADC1_Init:
  28              	.LFB216:
   1:Core/Src/adc.c **** /* USER CODE BEGIN Header */
   2:Core/Src/adc.c **** /**
   3:Core/Src/adc.c ****   ******************************************************************************
   4:Core/Src/adc.c ****   * @file    adc.c
   5:Core/Src/adc.c ****   * @brief   This file provides code for the configuration
   6:Core/Src/adc.c ****   *          of the ADC instances.
   7:Core/Src/adc.c ****   ******************************************************************************
   8:Core/Src/adc.c ****   * @attention
   9:Core/Src/adc.c ****   *
  10:Core/Src/adc.c ****   * Copyright (c) 2023 STMicroelectronics.
  11:Core/Src/adc.c ****   * All rights reserved.
  12:Core/Src/adc.c ****   *
  13:Core/Src/adc.c ****   * This software is licensed under terms that can be found in the LICENSE file
  14:Core/Src/adc.c ****   * in the root directory of this software component.
  15:Core/Src/adc.c ****   * If no LICENSE file comes with this software, it is provided AS-IS.
  16:Core/Src/adc.c ****   *
  17:Core/Src/adc.c ****   ******************************************************************************
  18:Core/Src/adc.c ****   */
  19:Core/Src/adc.c **** /* USER CODE END Header */
  20:Core/Src/adc.c **** /* Includes ------------------------------------------------------------------*/
  21:Core/Src/adc.c **** #include "adc.h"
  22:Core/Src/adc.c **** 
  23:Core/Src/adc.c **** /* USER CODE BEGIN 0 */
  24:Core/Src/adc.c **** 
  25:Core/Src/adc.c **** /* USER CODE END 0 */
  26:Core/Src/adc.c **** 
  27:Core/Src/adc.c **** ADC_HandleTypeDef hadc1;
  28:Core/Src/adc.c **** 
  29:Core/Src/adc.c **** /* ADC1 init function */
  30:Core/Src/adc.c **** void MX_ADC1_Init(void)
ARM GAS  C:\Users\Bgs\AppData\Local\Temp\ccOQqKeE.s 			page 2


  31:Core/Src/adc.c **** {
  29              		.loc 1 31 1 view -0
  30              		.cfi_startproc
  31              		@ args = 0, pretend = 0, frame = 16
  32              		@ frame_needed = 0, uses_anonymous_args = 0
  33 0000 00B5     		push	{lr}
  34              	.LCFI0:
  35              		.cfi_def_cfa_offset 4
  36              		.cfi_offset 14, -4
  37 0002 85B0     		sub	sp, sp, #20
  38              	.LCFI1:
  39              		.cfi_def_cfa_offset 24
  32:Core/Src/adc.c **** 
  33:Core/Src/adc.c ****   /* USER CODE BEGIN ADC1_Init 0 */
  34:Core/Src/adc.c **** 
  35:Core/Src/adc.c ****   /* USER CODE END ADC1_Init 0 */
  36:Core/Src/adc.c **** 
  37:Core/Src/adc.c ****   ADC_ChannelConfTypeDef sConfig = {0};
  40              		.loc 1 37 3 view .LVU1
  41              		.loc 1 37 26 is_stmt 0 view .LVU2
  42 0004 0023     		movs	r3, #0
  43 0006 0093     		str	r3, [sp]
  44 0008 0193     		str	r3, [sp, #4]
  45 000a 0293     		str	r3, [sp, #8]
  46 000c 0393     		str	r3, [sp, #12]
  38:Core/Src/adc.c **** 
  39:Core/Src/adc.c ****   /* USER CODE BEGIN ADC1_Init 1 */
  40:Core/Src/adc.c **** 
  41:Core/Src/adc.c ****   /* USER CODE END ADC1_Init 1 */
  42:Core/Src/adc.c **** 
  43:Core/Src/adc.c ****   /** Configure the global features of the ADC (Clock, Resolution, Data Alignment and number of con
  44:Core/Src/adc.c ****   */
  45:Core/Src/adc.c ****   hadc1.Instance = ADC1;
  47              		.loc 1 45 3 is_stmt 1 view .LVU3
  48              		.loc 1 45 18 is_stmt 0 view .LVU4
  49 000e 4E48     		ldr	r0, .L25
  50 0010 4E4A     		ldr	r2, .L25+4
  51 0012 0260     		str	r2, [r0]
  46:Core/Src/adc.c ****   hadc1.Init.ClockPrescaler = ADC_CLOCK_SYNC_PCLK_DIV2;
  52              		.loc 1 46 3 is_stmt 1 view .LVU5
  53              		.loc 1 46 29 is_stmt 0 view .LVU6
  54 0014 4360     		str	r3, [r0, #4]
  47:Core/Src/adc.c ****   hadc1.Init.Resolution = ADC_RESOLUTION_12B;
  55              		.loc 1 47 3 is_stmt 1 view .LVU7
  56              		.loc 1 47 25 is_stmt 0 view .LVU8
  57 0016 8360     		str	r3, [r0, #8]
  48:Core/Src/adc.c ****   hadc1.Init.ScanConvMode = ENABLE;
  58              		.loc 1 48 3 is_stmt 1 view .LVU9
  59              		.loc 1 48 27 is_stmt 0 view .LVU10
  60 0018 0122     		movs	r2, #1
  61 001a 0261     		str	r2, [r0, #16]
  49:Core/Src/adc.c ****   hadc1.Init.ContinuousConvMode = DISABLE;
  62              		.loc 1 49 3 is_stmt 1 view .LVU11
  63              		.loc 1 49 33 is_stmt 0 view .LVU12
  64 001c 0376     		strb	r3, [r0, #24]
  50:Core/Src/adc.c ****   hadc1.Init.DiscontinuousConvMode = DISABLE;
  65              		.loc 1 50 3 is_stmt 1 view .LVU13
ARM GAS  C:\Users\Bgs\AppData\Local\Temp\ccOQqKeE.s 			page 3


  66              		.loc 1 50 36 is_stmt 0 view .LVU14
  67 001e 80F82030 		strb	r3, [r0, #32]
  51:Core/Src/adc.c ****   hadc1.Init.ExternalTrigConvEdge = ADC_EXTERNALTRIGCONVEDGE_NONE;
  68              		.loc 1 51 3 is_stmt 1 view .LVU15
  69              		.loc 1 51 35 is_stmt 0 view .LVU16
  70 0022 C362     		str	r3, [r0, #44]
  52:Core/Src/adc.c ****   hadc1.Init.ExternalTrigConv = ADC_SOFTWARE_START;
  71              		.loc 1 52 3 is_stmt 1 view .LVU17
  72              		.loc 1 52 31 is_stmt 0 view .LVU18
  73 0024 4A49     		ldr	r1, .L25+8
  74 0026 8162     		str	r1, [r0, #40]
  53:Core/Src/adc.c ****   hadc1.Init.DataAlign = ADC_DATAALIGN_RIGHT;
  75              		.loc 1 53 3 is_stmt 1 view .LVU19
  76              		.loc 1 53 24 is_stmt 0 view .LVU20
  77 0028 C360     		str	r3, [r0, #12]
  54:Core/Src/adc.c ****   hadc1.Init.NbrOfConversion = 10;
  78              		.loc 1 54 3 is_stmt 1 view .LVU21
  79              		.loc 1 54 30 is_stmt 0 view .LVU22
  80 002a 0A21     		movs	r1, #10
  81 002c C161     		str	r1, [r0, #28]
  55:Core/Src/adc.c ****   hadc1.Init.DMAContinuousRequests = DISABLE;
  82              		.loc 1 55 3 is_stmt 1 view .LVU23
  83              		.loc 1 55 36 is_stmt 0 view .LVU24
  84 002e 80F83030 		strb	r3, [r0, #48]
  56:Core/Src/adc.c ****   hadc1.Init.EOCSelection = ADC_EOC_SINGLE_CONV;
  85              		.loc 1 56 3 is_stmt 1 view .LVU25
  86              		.loc 1 56 27 is_stmt 0 view .LVU26
  87 0032 4261     		str	r2, [r0, #20]
  57:Core/Src/adc.c ****   if (HAL_ADC_Init(&hadc1) != HAL_OK)
  88              		.loc 1 57 3 is_stmt 1 view .LVU27
  89              		.loc 1 57 7 is_stmt 0 view .LVU28
  90 0034 FFF7FEFF 		bl	HAL_ADC_Init
  91              	.LVL0:
  92              		.loc 1 57 6 view .LVU29
  93 0038 0028     		cmp	r0, #0
  94 003a 64D1     		bne	.L14
  95              	.L2:
  58:Core/Src/adc.c ****   {
  59:Core/Src/adc.c ****     Error_Handler();
  60:Core/Src/adc.c ****   }
  61:Core/Src/adc.c **** 
  62:Core/Src/adc.c ****   /** Configure for the selected ADC regular channel its corresponding rank in the sequencer and it
  63:Core/Src/adc.c ****   */
  64:Core/Src/adc.c ****   sConfig.Channel = ADC_CHANNEL_0;
  96              		.loc 1 64 3 is_stmt 1 view .LVU30
  97              		.loc 1 64 19 is_stmt 0 view .LVU31
  98 003c 0023     		movs	r3, #0
  99 003e 0093     		str	r3, [sp]
  65:Core/Src/adc.c ****   sConfig.Rank = 1;
 100              		.loc 1 65 3 is_stmt 1 view .LVU32
 101              		.loc 1 65 16 is_stmt 0 view .LVU33
 102 0040 0123     		movs	r3, #1
 103 0042 0193     		str	r3, [sp, #4]
  66:Core/Src/adc.c ****   sConfig.SamplingTime = ADC_SAMPLETIME_112CYCLES;
 104              		.loc 1 66 3 is_stmt 1 view .LVU34
 105              		.loc 1 66 24 is_stmt 0 view .LVU35
 106 0044 0523     		movs	r3, #5
ARM GAS  C:\Users\Bgs\AppData\Local\Temp\ccOQqKeE.s 			page 4


 107 0046 0293     		str	r3, [sp, #8]
  67:Core/Src/adc.c ****   if (HAL_ADC_ConfigChannel(&hadc1, &sConfig) != HAL_OK)
 108              		.loc 1 67 3 is_stmt 1 view .LVU36
 109              		.loc 1 67 7 is_stmt 0 view .LVU37
 110 0048 6946     		mov	r1, sp
 111 004a 3F48     		ldr	r0, .L25
 112 004c FFF7FEFF 		bl	HAL_ADC_ConfigChannel
 113              	.LVL1:
 114              		.loc 1 67 6 view .LVU38
 115 0050 0028     		cmp	r0, #0
 116 0052 5BD1     		bne	.L15
 117              	.L3:
  68:Core/Src/adc.c ****   {
  69:Core/Src/adc.c ****     Error_Handler();
  70:Core/Src/adc.c ****   }
  71:Core/Src/adc.c **** 
  72:Core/Src/adc.c ****   /** Configure for the selected ADC regular channel its corresponding rank in the sequencer and it
  73:Core/Src/adc.c ****   */
  74:Core/Src/adc.c ****   sConfig.Channel = ADC_CHANNEL_1;
 118              		.loc 1 74 3 is_stmt 1 view .LVU39
 119              		.loc 1 74 19 is_stmt 0 view .LVU40
 120 0054 0123     		movs	r3, #1
 121 0056 0093     		str	r3, [sp]
  75:Core/Src/adc.c ****   sConfig.Rank = 2;
 122              		.loc 1 75 3 is_stmt 1 view .LVU41
 123              		.loc 1 75 16 is_stmt 0 view .LVU42
 124 0058 0223     		movs	r3, #2
 125 005a 0193     		str	r3, [sp, #4]
  76:Core/Src/adc.c ****   if (HAL_ADC_ConfigChannel(&hadc1, &sConfig) != HAL_OK)
 126              		.loc 1 76 3 is_stmt 1 view .LVU43
 127              		.loc 1 76 7 is_stmt 0 view .LVU44
 128 005c 6946     		mov	r1, sp
 129 005e 3A48     		ldr	r0, .L25
 130 0060 FFF7FEFF 		bl	HAL_ADC_ConfigChannel
 131              	.LVL2:
 132              		.loc 1 76 6 view .LVU45
 133 0064 0028     		cmp	r0, #0
 134 0066 54D1     		bne	.L16
 135              	.L4:
  77:Core/Src/adc.c ****   {
  78:Core/Src/adc.c ****     Error_Handler();
  79:Core/Src/adc.c ****   }
  80:Core/Src/adc.c **** 
  81:Core/Src/adc.c ****   /** Configure for the selected ADC regular channel its corresponding rank in the sequencer and it
  82:Core/Src/adc.c ****   */
  83:Core/Src/adc.c ****   sConfig.Channel = ADC_CHANNEL_2;
 136              		.loc 1 83 3 is_stmt 1 view .LVU46
 137              		.loc 1 83 19 is_stmt 0 view .LVU47
 138 0068 0223     		movs	r3, #2
 139 006a 0093     		str	r3, [sp]
  84:Core/Src/adc.c ****   sConfig.Rank = 3;
 140              		.loc 1 84 3 is_stmt 1 view .LVU48
 141              		.loc 1 84 16 is_stmt 0 view .LVU49
 142 006c 0323     		movs	r3, #3
 143 006e 0193     		str	r3, [sp, #4]
  85:Core/Src/adc.c ****   if (HAL_ADC_ConfigChannel(&hadc1, &sConfig) != HAL_OK)
 144              		.loc 1 85 3 is_stmt 1 view .LVU50
ARM GAS  C:\Users\Bgs\AppData\Local\Temp\ccOQqKeE.s 			page 5


 145              		.loc 1 85 7 is_stmt 0 view .LVU51
 146 0070 6946     		mov	r1, sp
 147 0072 3548     		ldr	r0, .L25
 148 0074 FFF7FEFF 		bl	HAL_ADC_ConfigChannel
 149              	.LVL3:
 150              		.loc 1 85 6 view .LVU52
 151 0078 0028     		cmp	r0, #0
 152 007a 4DD1     		bne	.L17
 153              	.L5:
  86:Core/Src/adc.c ****   {
  87:Core/Src/adc.c ****     Error_Handler();
  88:Core/Src/adc.c ****   }
  89:Core/Src/adc.c **** 
  90:Core/Src/adc.c ****   /** Configure for the selected ADC regular channel its corresponding rank in the sequencer and it
  91:Core/Src/adc.c ****   */
  92:Core/Src/adc.c ****   sConfig.Channel = ADC_CHANNEL_3;
 154              		.loc 1 92 3 is_stmt 1 view .LVU53
 155              		.loc 1 92 19 is_stmt 0 view .LVU54
 156 007c 0323     		movs	r3, #3
 157 007e 0093     		str	r3, [sp]
  93:Core/Src/adc.c ****   sConfig.Rank = 4;
 158              		.loc 1 93 3 is_stmt 1 view .LVU55
 159              		.loc 1 93 16 is_stmt 0 view .LVU56
 160 0080 0423     		movs	r3, #4
 161 0082 0193     		str	r3, [sp, #4]
  94:Core/Src/adc.c ****   if (HAL_ADC_ConfigChannel(&hadc1, &sConfig) != HAL_OK)
 162              		.loc 1 94 3 is_stmt 1 view .LVU57
 163              		.loc 1 94 7 is_stmt 0 view .LVU58
 164 0084 6946     		mov	r1, sp
 165 0086 3048     		ldr	r0, .L25
 166 0088 FFF7FEFF 		bl	HAL_ADC_ConfigChannel
 167              	.LVL4:
 168              		.loc 1 94 6 view .LVU59
 169 008c 0028     		cmp	r0, #0
 170 008e 46D1     		bne	.L18
 171              	.L6:
  95:Core/Src/adc.c ****   {
  96:Core/Src/adc.c ****     Error_Handler();
  97:Core/Src/adc.c ****   }
  98:Core/Src/adc.c **** 
  99:Core/Src/adc.c ****   /** Configure for the selected ADC regular channel its corresponding rank in the sequencer and it
 100:Core/Src/adc.c ****   */
 101:Core/Src/adc.c ****   sConfig.Channel = ADC_CHANNEL_4;
 172              		.loc 1 101 3 is_stmt 1 view .LVU60
 173              		.loc 1 101 19 is_stmt 0 view .LVU61
 174 0090 0423     		movs	r3, #4
 175 0092 0093     		str	r3, [sp]
 102:Core/Src/adc.c ****   sConfig.Rank = 5;
 176              		.loc 1 102 3 is_stmt 1 view .LVU62
 177              		.loc 1 102 16 is_stmt 0 view .LVU63
 178 0094 0523     		movs	r3, #5
 179 0096 0193     		str	r3, [sp, #4]
 103:Core/Src/adc.c ****   if (HAL_ADC_ConfigChannel(&hadc1, &sConfig) != HAL_OK)
 180              		.loc 1 103 3 is_stmt 1 view .LVU64
 181              		.loc 1 103 7 is_stmt 0 view .LVU65
 182 0098 6946     		mov	r1, sp
 183 009a 2B48     		ldr	r0, .L25
ARM GAS  C:\Users\Bgs\AppData\Local\Temp\ccOQqKeE.s 			page 6


 184 009c FFF7FEFF 		bl	HAL_ADC_ConfigChannel
 185              	.LVL5:
 186              		.loc 1 103 6 view .LVU66
 187 00a0 0028     		cmp	r0, #0
 188 00a2 3FD1     		bne	.L19
 189              	.L7:
 104:Core/Src/adc.c ****   {
 105:Core/Src/adc.c ****     Error_Handler();
 106:Core/Src/adc.c ****   }
 107:Core/Src/adc.c **** 
 108:Core/Src/adc.c ****   /** Configure for the selected ADC regular channel its corresponding rank in the sequencer and it
 109:Core/Src/adc.c ****   */
 110:Core/Src/adc.c ****   sConfig.Channel = ADC_CHANNEL_5;
 190              		.loc 1 110 3 is_stmt 1 view .LVU67
 191              		.loc 1 110 19 is_stmt 0 view .LVU68
 192 00a4 0523     		movs	r3, #5
 193 00a6 0093     		str	r3, [sp]
 111:Core/Src/adc.c ****   sConfig.Rank = 6;
 194              		.loc 1 111 3 is_stmt 1 view .LVU69
 195              		.loc 1 111 16 is_stmt 0 view .LVU70
 196 00a8 0623     		movs	r3, #6
 197 00aa 0193     		str	r3, [sp, #4]
 112:Core/Src/adc.c ****   if (HAL_ADC_ConfigChannel(&hadc1, &sConfig) != HAL_OK)
 198              		.loc 1 112 3 is_stmt 1 view .LVU71
 199              		.loc 1 112 7 is_stmt 0 view .LVU72
 200 00ac 6946     		mov	r1, sp
 201 00ae 2648     		ldr	r0, .L25
 202 00b0 FFF7FEFF 		bl	HAL_ADC_ConfigChannel
 203              	.LVL6:
 204              		.loc 1 112 6 view .LVU73
 205 00b4 0028     		cmp	r0, #0
 206 00b6 38D1     		bne	.L20
 207              	.L8:
 113:Core/Src/adc.c ****   {
 114:Core/Src/adc.c ****     Error_Handler();
 115:Core/Src/adc.c ****   }
 116:Core/Src/adc.c **** 
 117:Core/Src/adc.c ****   /** Configure for the selected ADC regular channel its corresponding rank in the sequencer and it
 118:Core/Src/adc.c ****   */
 119:Core/Src/adc.c ****   sConfig.Channel = ADC_CHANNEL_6;
 208              		.loc 1 119 3 is_stmt 1 view .LVU74
 209              		.loc 1 119 19 is_stmt 0 view .LVU75
 210 00b8 0623     		movs	r3, #6
 211 00ba 0093     		str	r3, [sp]
 120:Core/Src/adc.c ****   sConfig.Rank = 7;
 212              		.loc 1 120 3 is_stmt 1 view .LVU76
 213              		.loc 1 120 16 is_stmt 0 view .LVU77
 214 00bc 0723     		movs	r3, #7
 215 00be 0193     		str	r3, [sp, #4]
 121:Core/Src/adc.c ****   if (HAL_ADC_ConfigChannel(&hadc1, &sConfig) != HAL_OK)
 216              		.loc 1 121 3 is_stmt 1 view .LVU78
 217              		.loc 1 121 7 is_stmt 0 view .LVU79
 218 00c0 6946     		mov	r1, sp
 219 00c2 2148     		ldr	r0, .L25
 220 00c4 FFF7FEFF 		bl	HAL_ADC_ConfigChannel
 221              	.LVL7:
 222              		.loc 1 121 6 view .LVU80
ARM GAS  C:\Users\Bgs\AppData\Local\Temp\ccOQqKeE.s 			page 7


 223 00c8 90BB     		cbnz	r0, .L21
 224              	.L9:
 122:Core/Src/adc.c ****   {
 123:Core/Src/adc.c ****     Error_Handler();
 124:Core/Src/adc.c ****   }
 125:Core/Src/adc.c **** 
 126:Core/Src/adc.c ****   /** Configure for the selected ADC regular channel its corresponding rank in the sequencer and it
 127:Core/Src/adc.c ****   */
 128:Core/Src/adc.c ****   sConfig.Channel = ADC_CHANNEL_7;
 225              		.loc 1 128 3 is_stmt 1 view .LVU81
 226              		.loc 1 128 19 is_stmt 0 view .LVU82
 227 00ca 0723     		movs	r3, #7
 228 00cc 0093     		str	r3, [sp]
 129:Core/Src/adc.c ****   sConfig.Rank = 8;
 229              		.loc 1 129 3 is_stmt 1 view .LVU83
 230              		.loc 1 129 16 is_stmt 0 view .LVU84
 231 00ce 0823     		movs	r3, #8
 232 00d0 0193     		str	r3, [sp, #4]
 130:Core/Src/adc.c ****   if (HAL_ADC_ConfigChannel(&hadc1, &sConfig) != HAL_OK)
 233              		.loc 1 130 3 is_stmt 1 view .LVU85
 234              		.loc 1 130 7 is_stmt 0 view .LVU86
 235 00d2 6946     		mov	r1, sp
 236 00d4 1C48     		ldr	r0, .L25
 237 00d6 FFF7FEFF 		bl	HAL_ADC_ConfigChannel
 238              	.LVL8:
 239              		.loc 1 130 6 view .LVU87
 240 00da 60BB     		cbnz	r0, .L22
 241              	.L10:
 131:Core/Src/adc.c ****   {
 132:Core/Src/adc.c ****     Error_Handler();
 133:Core/Src/adc.c ****   }
 134:Core/Src/adc.c **** 
 135:Core/Src/adc.c ****   /** Configure for the selected ADC regular channel its corresponding rank in the sequencer and it
 136:Core/Src/adc.c ****   */
 137:Core/Src/adc.c ****   sConfig.Channel = ADC_CHANNEL_8;
 242              		.loc 1 137 3 is_stmt 1 view .LVU88
 243              		.loc 1 137 19 is_stmt 0 view .LVU89
 244 00dc 0823     		movs	r3, #8
 245 00de 0093     		str	r3, [sp]
 138:Core/Src/adc.c ****   sConfig.Rank = 9;
 246              		.loc 1 138 3 is_stmt 1 view .LVU90
 247              		.loc 1 138 16 is_stmt 0 view .LVU91
 248 00e0 0923     		movs	r3, #9
 249 00e2 0193     		str	r3, [sp, #4]
 139:Core/Src/adc.c ****   if (HAL_ADC_ConfigChannel(&hadc1, &sConfig) != HAL_OK)
 250              		.loc 1 139 3 is_stmt 1 view .LVU92
 251              		.loc 1 139 7 is_stmt 0 view .LVU93
 252 00e4 6946     		mov	r1, sp
 253 00e6 1848     		ldr	r0, .L25
 254 00e8 FFF7FEFF 		bl	HAL_ADC_ConfigChannel
 255              	.LVL9:
 256              		.loc 1 139 6 view .LVU94
 257 00ec 30BB     		cbnz	r0, .L23
 258              	.L11:
 140:Core/Src/adc.c ****   {
 141:Core/Src/adc.c ****     Error_Handler();
 142:Core/Src/adc.c ****   }
ARM GAS  C:\Users\Bgs\AppData\Local\Temp\ccOQqKeE.s 			page 8


 143:Core/Src/adc.c **** 
 144:Core/Src/adc.c ****   /** Configure for the selected ADC regular channel its corresponding rank in the sequencer and it
 145:Core/Src/adc.c ****   */
 146:Core/Src/adc.c ****   sConfig.Channel = ADC_CHANNEL_9;
 259              		.loc 1 146 3 is_stmt 1 view .LVU95
 260              		.loc 1 146 19 is_stmt 0 view .LVU96
 261 00ee 0923     		movs	r3, #9
 262 00f0 0093     		str	r3, [sp]
 147:Core/Src/adc.c ****   sConfig.Rank = 10;
 263              		.loc 1 147 3 is_stmt 1 view .LVU97
 264              		.loc 1 147 16 is_stmt 0 view .LVU98
 265 00f2 0A23     		movs	r3, #10
 266 00f4 0193     		str	r3, [sp, #4]
 148:Core/Src/adc.c ****   if (HAL_ADC_ConfigChannel(&hadc1, &sConfig) != HAL_OK)
 267              		.loc 1 148 3 is_stmt 1 view .LVU99
 268              		.loc 1 148 7 is_stmt 0 view .LVU100
 269 00f6 6946     		mov	r1, sp
 270 00f8 1348     		ldr	r0, .L25
 271 00fa FFF7FEFF 		bl	HAL_ADC_ConfigChannel
 272              	.LVL10:
 273              		.loc 1 148 6 view .LVU101
 274 00fe 00BB     		cbnz	r0, .L24
 275              	.L1:
 149:Core/Src/adc.c ****   {
 150:Core/Src/adc.c ****     Error_Handler();
 151:Core/Src/adc.c ****   }
 152:Core/Src/adc.c ****   /* USER CODE BEGIN ADC1_Init 2 */
 153:Core/Src/adc.c **** 
 154:Core/Src/adc.c ****   /* USER CODE END ADC1_Init 2 */
 155:Core/Src/adc.c **** 
 156:Core/Src/adc.c **** }
 276              		.loc 1 156 1 view .LVU102
 277 0100 05B0     		add	sp, sp, #20
 278              	.LCFI2:
 279              		.cfi_remember_state
 280              		.cfi_def_cfa_offset 4
 281              		@ sp needed
 282 0102 5DF804FB 		ldr	pc, [sp], #4
 283              	.L14:
 284              	.LCFI3:
 285              		.cfi_restore_state
  59:Core/Src/adc.c ****   }
 286              		.loc 1 59 5 is_stmt 1 view .LVU103
 287 0106 FFF7FEFF 		bl	Error_Handler
 288              	.LVL11:
 289 010a 97E7     		b	.L2
 290              	.L15:
  69:Core/Src/adc.c ****   }
 291              		.loc 1 69 5 view .LVU104
 292 010c FFF7FEFF 		bl	Error_Handler
 293              	.LVL12:
 294 0110 A0E7     		b	.L3
 295              	.L16:
  78:Core/Src/adc.c ****   }
 296              		.loc 1 78 5 view .LVU105
 297 0112 FFF7FEFF 		bl	Error_Handler
 298              	.LVL13:
ARM GAS  C:\Users\Bgs\AppData\Local\Temp\ccOQqKeE.s 			page 9


 299 0116 A7E7     		b	.L4
 300              	.L17:
  87:Core/Src/adc.c ****   }
 301              		.loc 1 87 5 view .LVU106
 302 0118 FFF7FEFF 		bl	Error_Handler
 303              	.LVL14:
 304 011c AEE7     		b	.L5
 305              	.L18:
  96:Core/Src/adc.c ****   }
 306              		.loc 1 96 5 view .LVU107
 307 011e FFF7FEFF 		bl	Error_Handler
 308              	.LVL15:
 309 0122 B5E7     		b	.L6
 310              	.L19:
 105:Core/Src/adc.c ****   }
 311              		.loc 1 105 5 view .LVU108
 312 0124 FFF7FEFF 		bl	Error_Handler
 313              	.LVL16:
 314 0128 BCE7     		b	.L7
 315              	.L20:
 114:Core/Src/adc.c ****   }
 316              		.loc 1 114 5 view .LVU109
 317 012a FFF7FEFF 		bl	Error_Handler
 318              	.LVL17:
 319 012e C3E7     		b	.L8
 320              	.L21:
 123:Core/Src/adc.c ****   }
 321              		.loc 1 123 5 view .LVU110
 322 0130 FFF7FEFF 		bl	Error_Handler
 323              	.LVL18:
 324 0134 C9E7     		b	.L9
 325              	.L22:
 132:Core/Src/adc.c ****   }
 326              		.loc 1 132 5 view .LVU111
 327 0136 FFF7FEFF 		bl	Error_Handler
 328              	.LVL19:
 329 013a CFE7     		b	.L10
 330              	.L23:
 141:Core/Src/adc.c ****   }
 331              		.loc 1 141 5 view .LVU112
 332 013c FFF7FEFF 		bl	Error_Handler
 333              	.LVL20:
 334 0140 D5E7     		b	.L11
 335              	.L24:
 150:Core/Src/adc.c ****   }
 336              		.loc 1 150 5 view .LVU113
 337 0142 FFF7FEFF 		bl	Error_Handler
 338              	.LVL21:
 339              		.loc 1 156 1 is_stmt 0 view .LVU114
 340 0146 DBE7     		b	.L1
 341              	.L26:
 342              		.align	2
 343              	.L25:
 344 0148 00000000 		.word	hadc1
 345 014c 00200140 		.word	1073815552
 346 0150 0100000F 		.word	251658241
 347              		.cfi_endproc
ARM GAS  C:\Users\Bgs\AppData\Local\Temp\ccOQqKeE.s 			page 10


 348              	.LFE216:
 350              		.section	.text.HAL_ADC_MspInit,"ax",%progbits
 351              		.align	1
 352              		.global	HAL_ADC_MspInit
 353              		.syntax unified
 354              		.thumb
 355              		.thumb_func
 357              	HAL_ADC_MspInit:
 358              	.LVL22:
 359              	.LFB217:
 157:Core/Src/adc.c **** 
 158:Core/Src/adc.c **** void HAL_ADC_MspInit(ADC_HandleTypeDef* adcHandle)
 159:Core/Src/adc.c **** {
 360              		.loc 1 159 1 is_stmt 1 view -0
 361              		.cfi_startproc
 362              		@ args = 0, pretend = 0, frame = 32
 363              		@ frame_needed = 0, uses_anonymous_args = 0
 364              		.loc 1 159 1 is_stmt 0 view .LVU116
 365 0000 30B5     		push	{r4, r5, lr}
 366              	.LCFI4:
 367              		.cfi_def_cfa_offset 12
 368              		.cfi_offset 4, -12
 369              		.cfi_offset 5, -8
 370              		.cfi_offset 14, -4
 371 0002 89B0     		sub	sp, sp, #36
 372              	.LCFI5:
 373              		.cfi_def_cfa_offset 48
 160:Core/Src/adc.c **** 
 161:Core/Src/adc.c ****   GPIO_InitTypeDef GPIO_InitStruct = {0};
 374              		.loc 1 161 3 is_stmt 1 view .LVU117
 375              		.loc 1 161 20 is_stmt 0 view .LVU118
 376 0004 0023     		movs	r3, #0
 377 0006 0393     		str	r3, [sp, #12]
 378 0008 0493     		str	r3, [sp, #16]
 379 000a 0593     		str	r3, [sp, #20]
 380 000c 0693     		str	r3, [sp, #24]
 381 000e 0793     		str	r3, [sp, #28]
 162:Core/Src/adc.c ****   if(adcHandle->Instance==ADC1)
 382              		.loc 1 162 3 is_stmt 1 view .LVU119
 383              		.loc 1 162 15 is_stmt 0 view .LVU120
 384 0010 0268     		ldr	r2, [r0]
 385              		.loc 1 162 5 view .LVU121
 386 0012 03F18043 		add	r3, r3, #1073741824
 387 0016 03F59033 		add	r3, r3, #73728
 388 001a 9A42     		cmp	r2, r3
 389 001c 01D0     		beq	.L30
 390              	.LVL23:
 391              	.L27:
 163:Core/Src/adc.c ****   {
 164:Core/Src/adc.c ****   /* USER CODE BEGIN ADC1_MspInit 0 */
 165:Core/Src/adc.c **** 
 166:Core/Src/adc.c ****   /* USER CODE END ADC1_MspInit 0 */
 167:Core/Src/adc.c ****     /* ADC1 clock enable */
 168:Core/Src/adc.c ****     __HAL_RCC_ADC1_CLK_ENABLE();
 169:Core/Src/adc.c **** 
 170:Core/Src/adc.c ****     __HAL_RCC_GPIOA_CLK_ENABLE();
 171:Core/Src/adc.c ****     __HAL_RCC_GPIOB_CLK_ENABLE();
ARM GAS  C:\Users\Bgs\AppData\Local\Temp\ccOQqKeE.s 			page 11


 172:Core/Src/adc.c ****     /**ADC1 GPIO Configuration
 173:Core/Src/adc.c ****     PA0-WKUP     ------> ADC1_IN0
 174:Core/Src/adc.c ****     PA1     ------> ADC1_IN1
 175:Core/Src/adc.c ****     PA2     ------> ADC1_IN2
 176:Core/Src/adc.c ****     PA3     ------> ADC1_IN3
 177:Core/Src/adc.c ****     PA4     ------> ADC1_IN4
 178:Core/Src/adc.c ****     PA5     ------> ADC1_IN5
 179:Core/Src/adc.c ****     PA6     ------> ADC1_IN6
 180:Core/Src/adc.c ****     PA7     ------> ADC1_IN7
 181:Core/Src/adc.c ****     PB0     ------> ADC1_IN8
 182:Core/Src/adc.c ****     PB1     ------> ADC1_IN9
 183:Core/Src/adc.c ****     */
 184:Core/Src/adc.c ****     GPIO_InitStruct.Pin = GPIO_PIN_0|GPIO_PIN_1|GPIO_PIN_2|GPIO_PIN_3
 185:Core/Src/adc.c ****                           |GPIO_PIN_4|GPIO_PIN_5|GPIO_PIN_6|GPIO_PIN_7;
 186:Core/Src/adc.c ****     GPIO_InitStruct.Mode = GPIO_MODE_ANALOG;
 187:Core/Src/adc.c ****     GPIO_InitStruct.Pull = GPIO_NOPULL;
 188:Core/Src/adc.c ****     HAL_GPIO_Init(GPIOA, &GPIO_InitStruct);
 189:Core/Src/adc.c **** 
 190:Core/Src/adc.c ****     GPIO_InitStruct.Pin = GPIO_PIN_0|GPIO_PIN_1;
 191:Core/Src/adc.c ****     GPIO_InitStruct.Mode = GPIO_MODE_ANALOG;
 192:Core/Src/adc.c ****     GPIO_InitStruct.Pull = GPIO_NOPULL;
 193:Core/Src/adc.c ****     HAL_GPIO_Init(GPIOB, &GPIO_InitStruct);
 194:Core/Src/adc.c **** 
 195:Core/Src/adc.c ****   /* USER CODE BEGIN ADC1_MspInit 1 */
 196:Core/Src/adc.c **** 
 197:Core/Src/adc.c ****   /* USER CODE END ADC1_MspInit 1 */
 198:Core/Src/adc.c ****   }
 199:Core/Src/adc.c **** }
 392              		.loc 1 199 1 view .LVU122
 393 001e 09B0     		add	sp, sp, #36
 394              	.LCFI6:
 395              		.cfi_remember_state
 396              		.cfi_def_cfa_offset 12
 397              		@ sp needed
 398 0020 30BD     		pop	{r4, r5, pc}
 399              	.LVL24:
 400              	.L30:
 401              	.LCFI7:
 402              		.cfi_restore_state
 168:Core/Src/adc.c **** 
 403              		.loc 1 168 5 is_stmt 1 view .LVU123
 404              	.LBB2:
 168:Core/Src/adc.c **** 
 405              		.loc 1 168 5 view .LVU124
 406 0022 0024     		movs	r4, #0
 407 0024 0094     		str	r4, [sp]
 168:Core/Src/adc.c **** 
 408              		.loc 1 168 5 view .LVU125
 409 0026 03F58C33 		add	r3, r3, #71680
 410 002a 5A6C     		ldr	r2, [r3, #68]
 411 002c 42F48072 		orr	r2, r2, #256
 412 0030 5A64     		str	r2, [r3, #68]
 168:Core/Src/adc.c **** 
 413              		.loc 1 168 5 view .LVU126
 414 0032 5A6C     		ldr	r2, [r3, #68]
 415 0034 02F48072 		and	r2, r2, #256
 416 0038 0092     		str	r2, [sp]
ARM GAS  C:\Users\Bgs\AppData\Local\Temp\ccOQqKeE.s 			page 12


 168:Core/Src/adc.c **** 
 417              		.loc 1 168 5 view .LVU127
 418 003a 009A     		ldr	r2, [sp]
 419              	.LBE2:
 168:Core/Src/adc.c **** 
 420              		.loc 1 168 5 view .LVU128
 170:Core/Src/adc.c ****     __HAL_RCC_GPIOB_CLK_ENABLE();
 421              		.loc 1 170 5 view .LVU129
 422              	.LBB3:
 170:Core/Src/adc.c ****     __HAL_RCC_GPIOB_CLK_ENABLE();
 423              		.loc 1 170 5 view .LVU130
 424 003c 0194     		str	r4, [sp, #4]
 170:Core/Src/adc.c ****     __HAL_RCC_GPIOB_CLK_ENABLE();
 425              		.loc 1 170 5 view .LVU131
 426 003e 1A6B     		ldr	r2, [r3, #48]
 427 0040 42F00102 		orr	r2, r2, #1
 428 0044 1A63     		str	r2, [r3, #48]
 170:Core/Src/adc.c ****     __HAL_RCC_GPIOB_CLK_ENABLE();
 429              		.loc 1 170 5 view .LVU132
 430 0046 1A6B     		ldr	r2, [r3, #48]
 431 0048 02F00102 		and	r2, r2, #1
 432 004c 0192     		str	r2, [sp, #4]
 170:Core/Src/adc.c ****     __HAL_RCC_GPIOB_CLK_ENABLE();
 433              		.loc 1 170 5 view .LVU133
 434 004e 019A     		ldr	r2, [sp, #4]
 435              	.LBE3:
 170:Core/Src/adc.c ****     __HAL_RCC_GPIOB_CLK_ENABLE();
 436              		.loc 1 170 5 view .LVU134
 171:Core/Src/adc.c ****     /**ADC1 GPIO Configuration
 437              		.loc 1 171 5 view .LVU135
 438              	.LBB4:
 171:Core/Src/adc.c ****     /**ADC1 GPIO Configuration
 439              		.loc 1 171 5 view .LVU136
 440 0050 0294     		str	r4, [sp, #8]
 171:Core/Src/adc.c ****     /**ADC1 GPIO Configuration
 441              		.loc 1 171 5 view .LVU137
 442 0052 1A6B     		ldr	r2, [r3, #48]
 443 0054 42F00202 		orr	r2, r2, #2
 444 0058 1A63     		str	r2, [r3, #48]
 171:Core/Src/adc.c ****     /**ADC1 GPIO Configuration
 445              		.loc 1 171 5 view .LVU138
 446 005a 1B6B     		ldr	r3, [r3, #48]
 447 005c 03F00203 		and	r3, r3, #2
 448 0060 0293     		str	r3, [sp, #8]
 171:Core/Src/adc.c ****     /**ADC1 GPIO Configuration
 449              		.loc 1 171 5 view .LVU139
 450 0062 029B     		ldr	r3, [sp, #8]
 451              	.LBE4:
 171:Core/Src/adc.c ****     /**ADC1 GPIO Configuration
 452              		.loc 1 171 5 view .LVU140
 184:Core/Src/adc.c ****                           |GPIO_PIN_4|GPIO_PIN_5|GPIO_PIN_6|GPIO_PIN_7;
 453              		.loc 1 184 5 view .LVU141
 184:Core/Src/adc.c ****                           |GPIO_PIN_4|GPIO_PIN_5|GPIO_PIN_6|GPIO_PIN_7;
 454              		.loc 1 184 25 is_stmt 0 view .LVU142
 455 0064 FF23     		movs	r3, #255
 456 0066 0393     		str	r3, [sp, #12]
 186:Core/Src/adc.c ****     GPIO_InitStruct.Pull = GPIO_NOPULL;
ARM GAS  C:\Users\Bgs\AppData\Local\Temp\ccOQqKeE.s 			page 13


 457              		.loc 1 186 5 is_stmt 1 view .LVU143
 186:Core/Src/adc.c ****     GPIO_InitStruct.Pull = GPIO_NOPULL;
 458              		.loc 1 186 26 is_stmt 0 view .LVU144
 459 0068 0325     		movs	r5, #3
 460 006a 0495     		str	r5, [sp, #16]
 187:Core/Src/adc.c ****     HAL_GPIO_Init(GPIOA, &GPIO_InitStruct);
 461              		.loc 1 187 5 is_stmt 1 view .LVU145
 188:Core/Src/adc.c **** 
 462              		.loc 1 188 5 view .LVU146
 463 006c 03A9     		add	r1, sp, #12
 464 006e 0548     		ldr	r0, .L31
 465              	.LVL25:
 188:Core/Src/adc.c **** 
 466              		.loc 1 188 5 is_stmt 0 view .LVU147
 467 0070 FFF7FEFF 		bl	HAL_GPIO_Init
 468              	.LVL26:
 190:Core/Src/adc.c ****     GPIO_InitStruct.Mode = GPIO_MODE_ANALOG;
 469              		.loc 1 190 5 is_stmt 1 view .LVU148
 190:Core/Src/adc.c ****     GPIO_InitStruct.Mode = GPIO_MODE_ANALOG;
 470              		.loc 1 190 25 is_stmt 0 view .LVU149
 471 0074 0395     		str	r5, [sp, #12]
 191:Core/Src/adc.c ****     GPIO_InitStruct.Pull = GPIO_NOPULL;
 472              		.loc 1 191 5 is_stmt 1 view .LVU150
 191:Core/Src/adc.c ****     GPIO_InitStruct.Pull = GPIO_NOPULL;
 473              		.loc 1 191 26 is_stmt 0 view .LVU151
 474 0076 0495     		str	r5, [sp, #16]
 192:Core/Src/adc.c ****     HAL_GPIO_Init(GPIOB, &GPIO_InitStruct);
 475              		.loc 1 192 5 is_stmt 1 view .LVU152
 192:Core/Src/adc.c ****     HAL_GPIO_Init(GPIOB, &GPIO_InitStruct);
 476              		.loc 1 192 26 is_stmt 0 view .LVU153
 477 0078 0594     		str	r4, [sp, #20]
 193:Core/Src/adc.c **** 
 478              		.loc 1 193 5 is_stmt 1 view .LVU154
 479 007a 03A9     		add	r1, sp, #12
 480 007c 0248     		ldr	r0, .L31+4
 481 007e FFF7FEFF 		bl	HAL_GPIO_Init
 482              	.LVL27:
 483              		.loc 1 199 1 is_stmt 0 view .LVU155
 484 0082 CCE7     		b	.L27
 485              	.L32:
 486              		.align	2
 487              	.L31:
 488 0084 00000240 		.word	1073872896
 489 0088 00040240 		.word	1073873920
 490              		.cfi_endproc
 491              	.LFE217:
 493              		.section	.text.HAL_ADC_MspDeInit,"ax",%progbits
 494              		.align	1
 495              		.global	HAL_ADC_MspDeInit
 496              		.syntax unified
 497              		.thumb
 498              		.thumb_func
 500              	HAL_ADC_MspDeInit:
 501              	.LVL28:
 502              	.LFB218:
 200:Core/Src/adc.c **** 
 201:Core/Src/adc.c **** void HAL_ADC_MspDeInit(ADC_HandleTypeDef* adcHandle)
ARM GAS  C:\Users\Bgs\AppData\Local\Temp\ccOQqKeE.s 			page 14


 202:Core/Src/adc.c **** {
 503              		.loc 1 202 1 is_stmt 1 view -0
 504              		.cfi_startproc
 505              		@ args = 0, pretend = 0, frame = 0
 506              		@ frame_needed = 0, uses_anonymous_args = 0
 507              		.loc 1 202 1 is_stmt 0 view .LVU157
 508 0000 08B5     		push	{r3, lr}
 509              	.LCFI8:
 510              		.cfi_def_cfa_offset 8
 511              		.cfi_offset 3, -8
 512              		.cfi_offset 14, -4
 203:Core/Src/adc.c **** 
 204:Core/Src/adc.c ****   if(adcHandle->Instance==ADC1)
 513              		.loc 1 204 3 is_stmt 1 view .LVU158
 514              		.loc 1 204 15 is_stmt 0 view .LVU159
 515 0002 0268     		ldr	r2, [r0]
 516              		.loc 1 204 5 view .LVU160
 517 0004 084B     		ldr	r3, .L37
 518 0006 9A42     		cmp	r2, r3
 519 0008 00D0     		beq	.L36
 520              	.LVL29:
 521              	.L33:
 205:Core/Src/adc.c ****   {
 206:Core/Src/adc.c ****   /* USER CODE BEGIN ADC1_MspDeInit 0 */
 207:Core/Src/adc.c **** 
 208:Core/Src/adc.c ****   /* USER CODE END ADC1_MspDeInit 0 */
 209:Core/Src/adc.c ****     /* Peripheral clock disable */
 210:Core/Src/adc.c ****     __HAL_RCC_ADC1_CLK_DISABLE();
 211:Core/Src/adc.c **** 
 212:Core/Src/adc.c ****     /**ADC1 GPIO Configuration
 213:Core/Src/adc.c ****     PA0-WKUP     ------> ADC1_IN0
 214:Core/Src/adc.c ****     PA1     ------> ADC1_IN1
 215:Core/Src/adc.c ****     PA2     ------> ADC1_IN2
 216:Core/Src/adc.c ****     PA3     ------> ADC1_IN3
 217:Core/Src/adc.c ****     PA4     ------> ADC1_IN4
 218:Core/Src/adc.c ****     PA5     ------> ADC1_IN5
 219:Core/Src/adc.c ****     PA6     ------> ADC1_IN6
 220:Core/Src/adc.c ****     PA7     ------> ADC1_IN7
 221:Core/Src/adc.c ****     PB0     ------> ADC1_IN8
 222:Core/Src/adc.c ****     PB1     ------> ADC1_IN9
 223:Core/Src/adc.c ****     */
 224:Core/Src/adc.c ****     HAL_GPIO_DeInit(GPIOA, GPIO_PIN_0|GPIO_PIN_1|GPIO_PIN_2|GPIO_PIN_3
 225:Core/Src/adc.c ****                           |GPIO_PIN_4|GPIO_PIN_5|GPIO_PIN_6|GPIO_PIN_7);
 226:Core/Src/adc.c **** 
 227:Core/Src/adc.c ****     HAL_GPIO_DeInit(GPIOB, GPIO_PIN_0|GPIO_PIN_1);
 228:Core/Src/adc.c **** 
 229:Core/Src/adc.c ****   /* USER CODE BEGIN ADC1_MspDeInit 1 */
 230:Core/Src/adc.c **** 
 231:Core/Src/adc.c ****   /* USER CODE END ADC1_MspDeInit 1 */
 232:Core/Src/adc.c ****   }
 233:Core/Src/adc.c **** }
 522              		.loc 1 233 1 view .LVU161
 523 000a 08BD     		pop	{r3, pc}
 524              	.LVL30:
 525              	.L36:
 210:Core/Src/adc.c **** 
 526              		.loc 1 210 5 is_stmt 1 view .LVU162
ARM GAS  C:\Users\Bgs\AppData\Local\Temp\ccOQqKeE.s 			page 15


 527 000c 074A     		ldr	r2, .L37+4
 528 000e 536C     		ldr	r3, [r2, #68]
 529 0010 23F48073 		bic	r3, r3, #256
 530 0014 5364     		str	r3, [r2, #68]
 224:Core/Src/adc.c ****                           |GPIO_PIN_4|GPIO_PIN_5|GPIO_PIN_6|GPIO_PIN_7);
 531              		.loc 1 224 5 view .LVU163
 532 0016 FF21     		movs	r1, #255
 533 0018 0548     		ldr	r0, .L37+8
 534              	.LVL31:
 224:Core/Src/adc.c ****                           |GPIO_PIN_4|GPIO_PIN_5|GPIO_PIN_6|GPIO_PIN_7);
 535              		.loc 1 224 5 is_stmt 0 view .LVU164
 536 001a FFF7FEFF 		bl	HAL_GPIO_DeInit
 537              	.LVL32:
 227:Core/Src/adc.c **** 
 538              		.loc 1 227 5 is_stmt 1 view .LVU165
 539 001e 0321     		movs	r1, #3
 540 0020 0448     		ldr	r0, .L37+12
 541 0022 FFF7FEFF 		bl	HAL_GPIO_DeInit
 542              	.LVL33:
 543              		.loc 1 233 1 is_stmt 0 view .LVU166
 544 0026 F0E7     		b	.L33
 545              	.L38:
 546              		.align	2
 547              	.L37:
 548 0028 00200140 		.word	1073815552
 549 002c 00380240 		.word	1073887232
 550 0030 00000240 		.word	1073872896
 551 0034 00040240 		.word	1073873920
 552              		.cfi_endproc
 553              	.LFE218:
 555              		.global	hadc1
 556              		.section	.bss.hadc1,"aw",%nobits
 557              		.align	2
 560              	hadc1:
 561 0000 00000000 		.space	72
 561      00000000 
 561      00000000 
 561      00000000 
 561      00000000 
 562              		.text
 563              	.Letext0:
 564              		.file 2 "c:\\program files\\arm-gnu-toolchain-12.2.mpacbti-rel1-mingw-w64-i686-arm-none-eabi\\arm-
 565              		.file 3 "c:\\program files\\arm-gnu-toolchain-12.2.mpacbti-rel1-mingw-w64-i686-arm-none-eabi\\arm-
 566              		.file 4 "Drivers/CMSIS/Device/ST/STM32F4xx/Include/stm32f411xe.h"
 567              		.file 5 "Drivers/CMSIS/Device/ST/STM32F4xx/Include/stm32f4xx.h"
 568              		.file 6 "Drivers/STM32F4xx_HAL_Driver/Inc/stm32f4xx_hal_def.h"
 569              		.file 7 "Drivers/STM32F4xx_HAL_Driver/Inc/stm32f4xx_hal_gpio.h"
 570              		.file 8 "Drivers/STM32F4xx_HAL_Driver/Inc/stm32f4xx_hal_dma.h"
 571              		.file 9 "Drivers/STM32F4xx_HAL_Driver/Inc/stm32f4xx_hal_adc.h"
 572              		.file 10 "Core/Inc/adc.h"
 573              		.file 11 "Core/Inc/main.h"
ARM GAS  C:\Users\Bgs\AppData\Local\Temp\ccOQqKeE.s 			page 16

